target datalayout = "e-m:e-p270:32:32-p271:32:32-p272:64:64-i64:64-i128:128-f80:128-n8:16:32:64-S128"
target triple = "x86_64-pc-linux-gnu"

%struct.bitmap = type { ptr, i64 }

; Function Attrs: nounwind uwtable
define dso_local i32 @bitmap_equals(ptr noundef %0, ptr noundef %1) #0 {
  %3 = alloca i32, align 4
  %4 = alloca ptr, align 8
  %5 = alloca ptr, align 8
  %6 = alloca ptr, align 8
  %7 = alloca ptr, align 8
  %8 = alloca i64, align 8
  %9 = alloca i32, align 4
  store ptr %0, ptr %4, align 8, !tbaa !8
  store ptr %1, ptr %5, align 8, !tbaa !8
  call void @llvm.lifetime.start.p0(i64 8, ptr %6) #8
  call void @llvm.lifetime.start.p0(i64 8, ptr %7) #8
  call void @llvm.lifetime.start.p0(i64 8, ptr %8) #8
  %10 = load ptr, ptr %4, align 8, !tbaa !8
  %11 = getelementptr inbounds nuw %struct.bitmap, ptr %10, i32 0, i32 1
  %12 = load i64, ptr %11, align 8, !tbaa !14
  %13 = load ptr, ptr %5, align 8, !tbaa !8
  %14 = getelementptr inbounds nuw %struct.bitmap, ptr %13, i32 0, i32 1
  %15 = load i64, ptr %14, align 8, !tbaa !14
  %16 = icmp ult i64 %12, %15
  br i1 %16, label %17, label %20

17:                                               ; preds = %2
  %18 = load ptr, ptr %4, align 8, !tbaa !8
  store ptr %18, ptr %7, align 8, !tbaa !8
  %19 = load ptr, ptr %5, align 8, !tbaa !8
  store ptr %19, ptr %6, align 8, !tbaa !8
  br label %23

20:                                               ; preds = %2
  %21 = load ptr, ptr %5, align 8, !tbaa !8
  store ptr %21, ptr %7, align 8, !tbaa !8
  %22 = load ptr, ptr %4, align 8, !tbaa !8
  store ptr %22, ptr %6, align 8, !tbaa !8
  br label %23

23:                                               ; preds = %20, %17
  store i64 0, ptr %8, align 8, !tbaa !4
  br label %24

24:                                               ; preds = %46, %23
  %25 = load i64, ptr %8, align 8, !tbaa !4
  %26 = load ptr, ptr %7, align 8, !tbaa !8
  %27 = getelementptr inbounds nuw %struct.bitmap, ptr %26, i32 0, i32 1
  %28 = load i64, ptr %27, align 8, !tbaa !14
  %29 = icmp ult i64 %25, %28
  br i1 %29, label %30, label %49

30:                                               ; preds = %24
  %31 = load ptr, ptr %7, align 8, !tbaa !8
  %32 = getelementptr inbounds nuw %struct.bitmap, ptr %31, i32 0, i32 0
  %33 = load ptr, ptr %32, align 8, !tbaa !11
  %34 = load i64, ptr %8, align 8, !tbaa !4
  %35 = getelementptr inbounds nuw i64, ptr %33, i64 %34
  %36 = load i64, ptr %35, align 8, !tbaa !4
  %37 = load ptr, ptr %6, align 8, !tbaa !8
  %38 = getelementptr inbounds nuw %struct.bitmap, ptr %37, i32 0, i32 0
  %39 = load ptr, ptr %38, align 8, !tbaa !11
  %40 = load i64, ptr %8, align 8, !tbaa !4
  %41 = getelementptr inbounds nuw i64, ptr %39, i64 %40
  %42 = load i64, ptr %41, align 8, !tbaa !4
  %43 = icmp ne i64 %36, %42
  br i1 %43, label %44, label %45

44:                                               ; preds = %30
  store i32 0, ptr %3, align 4
  store i32 1, ptr %9, align 4
  br label %70

45:                                               ; preds = %30
  br label %46

46:                                               ; preds = %45
  %47 = load i64, ptr %8, align 8, !tbaa !4
  %48 = add i64 %47, 1
  store i64 %48, ptr %8, align 8, !tbaa !4
  br label %24, !llvm.loop !31

49:                                               ; preds = %24
  br label %50

50:                                               ; preds = %66, %49
  %51 = load i64, ptr %8, align 8, !tbaa !4
  %52 = load ptr, ptr %6, align 8, !tbaa !8
  %53 = getelementptr inbounds nuw %struct.bitmap, ptr %52, i32 0, i32 1
  %54 = load i64, ptr %53, align 8, !tbaa !14
  %55 = icmp ult i64 %51, %54
  br i1 %55, label %56, label %69

56:                                               ; preds = %50
  %57 = load ptr, ptr %6, align 8, !tbaa !8
  %58 = getelementptr inbounds nuw %struct.bitmap, ptr %57, i32 0, i32 0
  %59 = load ptr, ptr %58, align 8, !tbaa !11
  %60 = load i64, ptr %8, align 8, !tbaa !4
  %61 = getelementptr inbounds nuw i64, ptr %59, i64 %60
  %62 = load i64, ptr %61, align 8, !tbaa !4
  %63 = icmp ne i64 %62, 0
  br i1 %63, label %64, label %65

64:                                               ; preds = %56
  store i32 0, ptr %3, align 4
  store i32 1, ptr %9, align 4
  br label %70

65:                                               ; preds = %56
  br label %66

66:                                               ; preds = %65
  %67 = load i64, ptr %8, align 8, !tbaa !4
  %68 = add i64 %67, 1
  store i64 %68, ptr %8, align 8, !tbaa !4
  br label %50, !llvm.loop !32

69:                                               ; preds = %50
  store i32 1, ptr %3, align 4
  store i32 1, ptr %9, align 4
  br label %70

70:                                               ; preds = %69, %64, %44
  call void @llvm.lifetime.end.p0(i64 8, ptr %8) #8
  call void @llvm.lifetime.end.p0(i64 8, ptr %7) #8
  call void @llvm.lifetime.end.p0(i64 8, ptr %6) #8
  %71 = load i32, ptr %3, align 4
  ret i32 %71
}