; Function Attrs: nofree norecurse nosync nounwind memory(read, inaccessiblemem: none) uwtable
define dso_local range(i32 0, 2) i32 @bitmap_equals(ptr noundef readonly captures(none) %0, ptr noundef readonly captures(none) %1) local_unnamed_addr #7 {
  %3 = getelementptr inbounds nuw i8, ptr %0, i64 8
  %4 = load i64, ptr %3, align 8, !tbaa !11
  %5 = getelementptr inbounds nuw i8, ptr %1, i64 8
  %6 = load i64, ptr %5, align 8, !tbaa !11
  %7 = icmp ult i64 %4, %6
  %. = select i1 %7, ptr %1, ptr %0
  %.22 = select i1 %7, ptr %0, ptr %1
  %8 = getelementptr inbounds nuw i8, ptr %.22, i64 8
  %9 = load i64, ptr %8, align 8, !tbaa !11
  %.not31 = icmp eq i64 %9, 0
  br i1 %.not31, label %.preheader, label %.lr.ph

.lr.ph:                                           ; preds = %2
  %10 = load ptr, ptr %.22, align 8, !tbaa !4
  %11 = load ptr, ptr %., align 8, !tbaa !4
  br label %16

.preheader:                                       ; preds = %21, %2
  %12 = getelementptr inbounds nuw i8, ptr %., i64 8
  %13 = load i64, ptr %12, align 8, !tbaa !11
  %14 = icmp ult i64 %9, %13
  br i1 %14, label %.lr.ph27, label %.loopexit

.lr.ph27:                                         ; preds = %.preheader
  %15 = load ptr, ptr %., align 8, !tbaa !4
  br label %25

16:                                               ; preds = %.lr.ph, %21
  %.025 = phi i64 [ 0, %.lr.ph ], [ %22, %21 ]
  %17 = getelementptr inbounds nuw i64, ptr %10, i64 %.025
  %18 = load i64, ptr %17, align 8, !tbaa !12
  %19 = getelementptr inbounds nuw i64, ptr %11, i64 %.025
  %20 = load i64, ptr %19, align 8, !tbaa !12
  %.not21 = icmp eq i64 %18, %20
  br i1 %.not21, label %21, label %.loopexit

21:                                               ; preds = %16
  %22 = add nuw i64 %.025, 1
  %exitcond.not = icmp eq i64 %22, %9
  br i1 %exitcond.not, label %.preheader, label %16, !llvm.loop !26

23:                                               ; preds = %25
  %24 = add i64 %.126, 1
  %exitcond33.not = icmp eq i64 %24, %13
  br i1 %exitcond33.not, label %.loopexit, label %25, !llvm.loop !27

25:                                               ; preds = %.lr.ph27, %23
  %.126 = phi i64 [ %9, %.lr.ph27 ], [ %24, %23 ]
  %26 = getelementptr inbounds nuw i64, ptr %15, i64 %.126
  %27 = load i64, ptr %26, align 8, !tbaa !12
  %.not = icmp eq i64 %27, 0
  br i1 %.not, label %23, label %.loopexit

.loopexit:                                        ; preds = %16, %25, %23, %.preheader
  %.020 = phi i32 [ 1, %.preheader ], [ 0, %25 ], [ 1, %23 ], [ 0, %16 ]
  ret i32 %.020
}